; Function Attrs: mustprogress uwtable
define noundef nonnull align 8 dereferenceable(97) ptr @_ZN7rocksdb18SeqnoToTimeMapping11SetCapacityEm(ptr noundef nonnull returned align 8 dereferenceable(97) initializes((8, 16)) %0, i64 noundef %1) local_unnamed_addr #6 align 2 {
  %3 = getelementptr inbounds nuw i8, ptr %0, i64 8
  store i64 %1, ptr %3, align 8, !tbaa !143
  %4 = getelementptr inbounds nuw i8, ptr %0, i64 96
  %5 = load i8, ptr %4, align 8, !tbaa !233, !range !234, !noundef !235
  %6 = trunc nuw i8 %5 to i1
  br i1 %6, label %7, label %8

7:                                                ; preds = %2
  tail call void @_ZN7rocksdb18SeqnoToTimeMapping15EnforceCapacityEb(ptr noundef nonnull align 8 dereferenceable(97) %0, i1 noundef zeroext true)
  br label %8

8:                                                ; preds = %7, %2
  ret ptr %0
}